; Function Attrs: nofree nounwind uwtable
define range(i32 0, 2) i32 @Cudd_EnableReorderingReporting(ptr noundef captures(none) %0) local_unnamed_addr #16 {
  %2 = getelementptr inbounds nuw i8, ptr %0, i64 592
  %.01822.i = load ptr, ptr %2, align 8
  %.not23.i = icmp eq ptr %.01822.i, null
  br i1 %.not23.i, label %._crit_edge.i, label %.lr.ph.i

3:                                                ; preds = %.lr.ph.i
  %4 = getelementptr inbounds nuw i8, ptr %.01824.i, i64 8
  %.018.i = load ptr, ptr %4, align 8
  %.not.i = icmp eq ptr %.018.i, null
  br i1 %.not.i, label %._crit_edge.i.loopexit, label %.lr.ph.i, !llvm.loop !30

.lr.ph.i:                                         ; preds = %1, %3
  %.01824.i = phi ptr [ %.018.i, %3 ], [ %.01822.i, %1 ]
  %5 = load ptr, ptr %.01824.i, align 8
  %6 = icmp eq ptr %5, @Cudd_StdPreReordHook
  br i1 %6, label %.loopexit, label %3

._crit_edge.i.loopexit:                           ; preds = %3
  %7 = getelementptr inbounds nuw i8, ptr %.01824.i, i64 8
  br label %._crit_edge.i

._crit_edge.i:                                    ; preds = %._crit_edge.i.loopexit, %1
  %.1.lcssa.i = phi ptr [ %2, %1 ], [ %7, %._crit_edge.i.loopexit ]
  %8 = tail call noalias dereferenceable_or_null(16) ptr @malloc(i64 noundef 16) #21
  %9 = icmp eq ptr %8, null
  br i1 %9, label %Cudd_AddHook.exit, label %10

10:                                               ; preds = %._crit_edge.i
  %11 = getelementptr inbounds nuw i8, ptr %8, i64 8
  store ptr null, ptr %11, align 8
  store ptr @Cudd_StdPreReordHook, ptr %8, align 8
  store ptr %8, ptr %.1.lcssa.i, align 8
  br label %.loopexit

Cudd_AddHook.exit:                                ; preds = %._crit_edge.i
  %12 = getelementptr inbounds nuw i8, ptr %0, i64 624
  store i32 1, ptr %12, align 8
  br label %Cudd_AddHook.exit13.thread

.loopexit:                                        ; preds = %.lr.ph.i, %10
  %13 = getelementptr inbounds nuw i8, ptr %0, i64 600
  %.01822.i3 = load ptr, ptr %13, align 8
  %.not23.i4 = icmp eq ptr %.01822.i3, null
  br i1 %.not23.i4, label %._crit_edge.i10, label %.lr.ph.i5

14:                                               ; preds = %.lr.ph.i5
  %15 = getelementptr inbounds nuw i8, ptr %.01824.i6, i64 8
  %.018.i7 = load ptr, ptr %15, align 8
  %.not.i8 = icmp eq ptr %.018.i7, null
  br i1 %.not.i8, label %._crit_edge.i10.loopexit, label %.lr.ph.i5, !llvm.loop !30

.lr.ph.i5:                                        ; preds = %.loopexit, %14
  %.01824.i6 = phi ptr [ %.018.i7, %14 ], [ %.01822.i3, %.loopexit ]
  %16 = load ptr, ptr %.01824.i6, align 8
  %17 = icmp eq ptr %16, @Cudd_StdPostReordHook
  br i1 %17, label %Cudd_AddHook.exit13.thread, label %14

._crit_edge.i10.loopexit:                         ; preds = %14
  %18 = getelementptr inbounds nuw i8, ptr %.01824.i6, i64 8
  br label %._crit_edge.i10

._crit_edge.i10:                                  ; preds = %._crit_edge.i10.loopexit, %.loopexit
  %.1.lcssa.i11 = phi ptr [ %13, %.loopexit ], [ %18, %._crit_edge.i10.loopexit ]
  %19 = tail call noalias dereferenceable_or_null(16) ptr @malloc(i64 noundef 16) #21
  %20 = icmp eq ptr %19, null
  br i1 %20, label %23, label %21

21:                                               ; preds = %._crit_edge.i10
  %22 = getelementptr inbounds nuw i8, ptr %19, i64 8
  store ptr null, ptr %22, align 8
  store ptr @Cudd_StdPostReordHook, ptr %19, align 8
  store ptr %19, ptr %.1.lcssa.i11, align 8
  br label %Cudd_AddHook.exit13.thread

23:                                               ; preds = %._crit_edge.i10
  %24 = getelementptr inbounds nuw i8, ptr %0, i64 624
  store i32 1, ptr %24, align 8
  br label %Cudd_AddHook.exit13.thread

Cudd_AddHook.exit13.thread:                       ; preds = %.lr.ph.i5, %21, %23, %Cudd_AddHook.exit
  %.0 = phi i32 [ 0, %Cudd_AddHook.exit ], [ 0, %23 ], [ 1, %21 ], [ 1, %.lr.ph.i5 ]
  ret i32 %.0
}